(dp1
S'layout'
p2
(ilayout
Layout
p3
(dp4
S'capsules'
p5
(lp6
(I23
I7
tp7
a(I12
I8
tp8
a(I21
I9
tp9
a(I10
I10
tp10
asS'numGhosts'
p11
I4
sS'food'
p12
(igame
Grid
p13
(dp14
S'CELLS_PER_INT'
p15
I30
sS'width'
p16
I34
sS'data'
p17
(lp18
(lp19
I00
aI00
aI00
aI00
aI00
aI00
aI00
aI00
aI00
aI00
aI00
aI00
aI00
aI00
aI00
aI00
aI00
aI00
aa(lp20
I00
aI00
aI00
aI00
aI00
aI00
aI00
aI00
aI00
aI00
aI00
aI00
aI00
aI00
aI00
aI00
aI00
aI00
aa(lp21
I00
aI00
aI00
aI00
aI00
aI00
aI00
aI00
aI00
aI00
aI00
aI00
aI00
aI00
aI00
aI00
aI00
aI00
aa(lp22
I00
aI00
aI00
aI00
aI00
aI00
aI01
aI00
aI00
aI00
aI00
aI00
aI00
aI00
aI01
aI00
aI00
aI00
aa(lp23
I00
aI00
aI00
aI00
aI00
aI00
aI00
aI01
aI01
aI00
aI00
aI00
aI00
aI00
aI00
aI01
aI00
aI00
aa(lp24
I00
aI00
aI00
aI00
aI00
aI00
aI01
aI00
aI00
aI00
aI00
aI00
aI00
aI00
aI00
aI00
aI00
aI00
aa(lp25
I00
aI01
aI00
aI00
aI00
aI00
aI00
aI00
aI00
aI00
aI00
aI01
aI01
aI00
aI00
aI01
aI01
aI00
aa(lp26
I00
aI00
aI00
aI00
aI00
aI00
aI00
aI00
aI00
aI00
aI00
aI00
aI00
aI00
aI00
aI00
aI00
aI00
aa(lp27
I00
aI01
aI01
aI00
aI00
aI00
aI00
aI00
aI00
aI00
aI00
aI00
aI00
aI00
aI00
aI01
aI01
aI00
aa(lp28
I00
aI00
aI00
aI00
aI00
aI00
aI00
aI00
aI01
aI00
aI00
aI00
aI00
aI00
aI00
aI00
aI00
aI00
aa(lp29
I00
aI00
aI00
aI00
aI00
aI00
aI00
aI00
aI00
aI00
aI00
aI01
aI00
aI01
aI01
aI00
aI01
aI00
aa(lp30
I00
aI00
aI00
aI00
aI00
aI00
aI00
aI00
aI00
aI00
aI00
aI00
aI00
aI00
aI00
aI01
aI00
aI00
aa(lp31
I00
aI00
aI00
aI00
aI00
aI00
aI00
aI00
aI00
aI00
aI01
aI00
aI00
aI01
aI00
aI00
aI01
aI00
aa(lp32
I00
aI00
aI00
aI01
aI00
aI00
aI00
aI00
aI00
aI00
aI00
aI00
aI00
aI00
aI00
aI00
aI00
aI00
aa(lp33
I00
aI00
aI00
aI00
aI00
aI00
aI00
aI00
aI00
aI01
aI01
aI01
aI00
aI00
aI00
aI01
aI01
aI00
aa(lp34
I00
aI00
aI00
aI00
aI00
aI00
aI00
aI00
aI00
aI00
aI00
aI00
aI00
aI00
aI00
aI00
aI00
aI00
aa(lp35
I00
aI00
aI00
aI00
aI00
aI00
aI00
aI00
aI00
aI00
aI00
aI00
aI00
aI00
aI00
aI00
aI00
aI00
aa(lp36
I00
aI00
aI00
aI00
aI00
aI00
aI00
aI00
aI00
aI00
aI00
aI00
aI00
aI00
aI00
aI00
aI00
aI00
aa(lp37
I00
aI00
aI00
aI00
aI00
aI00
aI00
aI00
aI00
aI00
aI00
aI00
aI00
aI00
aI00
aI00
aI00
aI00
aa(lp38
I00
aI01
aI01
aI00
aI00
aI00
aI01
aI01
aI01
aI00
aI00
aI00
aI00
aI00
aI00
aI00
aI00
aI00
aa(lp39
I00
aI00
aI00
aI00
aI00
aI00
aI00
aI00
aI00
aI00
aI00
aI00
aI00
aI00
aI01
aI00
aI00
aI00
aa(lp40
I00
aI01
aI00
aI00
aI01
aI00
aI00
aI01
aI00
aI00
aI00
aI00
aI00
aI00
aI00
aI00
aI00
aI00
aa(lp41
I00
aI00
aI01
aI00
aI00
aI00
aI00
aI00
aI00
aI00
aI00
aI00
aI00
aI00
aI00
aI00
aI00
aI00
aa(lp42
I00
aI01
aI00
aI01
aI01
aI00
aI01
aI00
aI00
aI00
aI00
aI00
aI00
aI00
aI00
aI00
aI00
aI00
aa(lp43
I00
aI00
aI00
aI00
aI00
aI00
aI00
aI00
aI00
aI01
aI00
aI00
aI00
aI00
aI00
aI00
aI00
aI00
aa(lp44
I00
aI01
aI01
aI00
aI00
aI00
aI00
aI00
aI00
aI00
aI00
aI00
aI00
aI00
aI00
aI01
aI01
aI00
aa(lp45
I00
aI00
aI00
aI00
aI00
aI00
aI00
aI00
aI00
aI00
aI00
aI00
aI00
aI00
aI00
aI00
aI00
aI00
aa(lp46
I00
aI01
aI01
aI00
aI00
aI01
aI01
aI00
aI00
aI00
aI00
aI00
aI00
aI00
aI00
aI00
aI01
aI00
aa(lp47
I00
aI00
aI00
aI00
aI00
aI00
aI00
aI00
aI00
aI00
aI00
aI01
aI00
aI00
aI00
aI00
aI00
aI00
aa(lp48
I00
aI00
aI01
aI00
aI00
aI00
aI00
aI00
aI00
aI01
aI01
aI00
aI00
aI00
aI00
aI00
aI00
aI00
aa(lp49
I00
aI00
aI00
aI01
aI00
aI00
aI00
aI00
aI00
aI00
aI00
aI01
aI00
aI00
aI00
aI00
aI00
aI00
aa(lp50
I00
aI00
aI00
aI00
aI00
aI00
aI00
aI00
aI00
aI00
aI00
aI00
aI00
aI00
aI00
aI00
aI00
aI00
aa(lp51
I00
aI00
aI00
aI00
aI00
aI00
aI00
aI00
aI00
aI00
aI00
aI00
aI00
aI00
aI00
aI00
aI00
aI00
aa(lp52
I00
aI00
aI00
aI00
aI00
aI00
aI00
aI00
aI00
aI00
aI00
aI00
aI00
aI00
aI00
aI00
aI00
aI00
aasS'height'
p53
I18
sbsS'agentPositions'
p54
(lp55
(I00
(I1
I2
tp56
tp57
a(I00
(I32
I15
tp58
tp59
a(I00
(I1
I1
tp60
tp61
a(I00
(I32
I16
tp62
tp63
asg53
I18
sg16
I34
sS'walls'
p64
(igame
Grid
p65
(dp66
g15
I30
sg16
I34
sg17
(lp67
(lp68
I01
aI01
aI01
aI01
aI01
aI01
aI01
aI01
aI01
aI01
aI01
aI01
aI01
aI01
aI01
aI01
aI01
aI01
aa(lp69
I01
aI00
aI00
aI00
aI00
aI00
aI00
aI00
aI00
aI00
aI00
aI00
aI00
aI00
aI00
aI00
aI00
aI01
aa(lp70
I01
aI01
aI01
aI01
aI01
aI01
aI01
aI01
aI01
aI01
aI01
aI01
aI01
aI01
aI01
aI01
aI00
aI01
aa(lp71
I01
aI00
aI00
aI00
aI00
aI01
aI00
aI01
aI00
aI00
aI01
aI00
aI00
aI01
aI00
aI01
aI00
aI01
aa(lp72
I01
aI00
aI01
aI00
aI00
aI01
aI00
aI00
aI00
aI00
aI00
aI00
aI00
aI00
aI00
aI00
aI00
aI01
aa(lp73
I01
aI00
aI01
aI00
aI00
aI00
aI00
aI01
aI01
aI01
aI01
aI01
aI01
aI01
aI00
aI01
aI01
aI01
aa(lp74
I01
aI00
aI01
aI00
aI00
aI01
aI00
aI00
aI00
aI00
aI00
aI00
aI00
aI00
aI00
aI00
aI00
aI01
aa(lp75
I01
aI01
aI01
aI01
aI00
aI01
aI00
aI01
aI01
aI01
aI01
aI01
aI00
aI01
aI01
aI01
aI01
aI01
aa(lp76
I01
aI00
aI00
aI00
aI00
aI01
aI00
aI00
aI00
aI00
aI01
aI00
aI00
aI00
aI00
aI00
aI00
aI01
aa(lp77
I01
aI01
aI01
aI01
aI01
aI01
aI01
aI01
aI00
aI00
aI01
aI00
aI01
aI01
aI01
aI01
aI01
aI01
aa(lp78
I01
aI00
aI00
aI00
aI00
aI00
aI00
aI00
aI00
aI00
aI00
aI00
aI01
aI00
aI00
aI00
aI00
aI01
aa(lp79
I01
aI00
aI01
aI01
aI01
aI01
aI01
aI01
aI01
aI01
aI00
aI01
aI01
aI01
aI01
aI00
aI01
aI01
aa(lp80
I01
aI00
aI01
aI00
aI00
aI01
aI00
aI00
aI00
aI00
aI00
aI00
aI00
aI00
aI00
aI00
aI00
aI01
aa(lp81
I01
aI00
aI01
aI00
aI00
aI00
aI00
aI00
aI01
aI01
aI01
aI00
aI01
aI01
aI01
aI01
aI01
aI01
aa(lp82
I01
aI00
aI00
aI00
aI00
aI00
aI00
aI00
aI01
aI00
aI00
aI00
aI00
aI00
aI00
aI00
aI00
aI01
aa(lp83
I01
aI00
aI01
aI01
aI01
aI00
aI01
aI01
aI01
aI01
aI01
aI00
aI01
aI00
aI01
aI01
aI01
aI01
aa(lp84
I01
aI00
aI01
aI00
aI00
aI00
aI00
aI00
aI01
aI00
aI00
aI00
aI01
aI00
aI00
aI00
aI00
aI01
aa(lp85
I01
aI00
aI00
aI00
aI00
aI01
aI00
aI00
aI00
aI01
aI00
aI00
aI00
aI00
aI00
aI01
aI00
aI01
aa(lp86
I01
aI01
aI01
aI01
aI00
aI01
aI00
aI01
aI01
aI01
aI01
aI01
aI00
aI01
aI01
aI01
aI00
aI01
aa(lp87
I01
aI00
aI00
aI00
aI00
aI00
aI00
aI00
aI00
aI01
aI00
aI00
aI00
aI00
aI00
aI00
aI00
aI01
aa(lp88
I01
aI01
aI01
aI01
aI01
aI01
aI00
aI01
aI01
aI01
aI00
aI00
aI00
aI00
aI00
aI01
aI00
aI01
aa(lp89
I01
aI00
aI00
aI00
aI00
aI00
aI00
aI00
aI00
aI00
aI00
aI00
aI01
aI00
aI00
aI01
aI00
aI01
aa(lp90
I01
aI01
aI00
aI01
aI01
aI01
aI01
aI00
aI01
aI01
aI01
aI01
aI01
aI01
aI01
aI01
aI00
aI01
aa(lp91
I01
aI00
aI00
aI00
aI00
aI01
aI00
aI00
aI00
aI00
aI00
aI00
aI00
aI00
aI00
aI00
aI00
aI01
aa(lp92
I01
aI01
aI01
aI01
aI01
aI01
aI00
aI01
aI00
aI00
aI01
aI01
aI01
aI01
aI01
aI01
aI01
aI01
aa(lp93
I01
aI00
aI00
aI00
aI00
aI00
aI00
aI01
aI00
aI00
aI00
aI00
aI01
aI00
aI00
aI00
aI00
aI01
aa(lp94
I01
aI01
aI01
aI01
aI01
aI00
aI01
aI01
aI01
aI01
aI01
aI00
aI01
aI00
aI01
aI01
aI01
aI01
aa(lp95
I01
aI00
aI00
aI00
aI00
aI00
aI00
aI00
aI00
aI00
aI00
aI00
aI01
aI00
aI00
aI01
aI00
aI01
aa(lp96
I01
aI01
aI01
aI00
aI01
aI01
aI01
aI01
aI01
aI01
aI01
aI00
aI00
aI00
aI00
aI01
aI00
aI01
aa(lp97
I01
aI00
aI00
aI00
aI00
aI00
aI00
aI00
aI00
aI00
aI00
aI00
aI01
aI00
aI00
aI01
aI00
aI01
aa(lp98
I01
aI00
aI01
aI00
aI01
aI00
aI00
aI01
aI00
aI00
aI01
aI00
aI01
aI00
aI00
aI00
aI00
aI01
aa(lp99
I01
aI00
aI01
aI01
aI01
aI01
aI01
aI01
aI01
aI01
aI01
aI01
aI01
aI01
aI01
aI01
aI01
aI01
aa(lp100
I01
aI00
aI00
aI00
aI00
aI00
aI00
aI00
aI00
aI00
aI00
aI00
aI00
aI00
aI00
aI00
aI00
aI01
aa(lp101
I01
aI01
aI01
aI01
aI01
aI01
aI01
aI01
aI01
aI01
aI01
aI01
aI01
aI01
aI01
aI01
aI01
aI01
aasg53
I18
sbsS'layoutText'
p102
(lp103
S'%%%%%%%%%%%%%%%%%%%%%%%%%%%%%%%%%%'
p104
aS'%    %.%.%.%.%.%        %.%.   %4%'
p105
aS'% %%.%.%.% . %.% %% %%% %.%%%% %2%'
p106
aS'% %.   % %.% % %  % . % % %    % %'
p107
aS'% %% % % %.%.%    %   % %      % %'
p108
aS'% %  %.  %%% % %%    %% %%%% %%% %'
p109
aS'% %  %.%  .%  .   %   % %   . .% %'
p110
aS'% %% % %%%o .%.%  %   % % % %.%% %'
p111
aS'% %  % %   % %.% %%%%o% . % %. % %'
p112
aS'% % .% % . %o%%%% %.% %   % %  % %'
p113
aS'% %%.% % % %   %  %.%. o%%% % %% %'
p114
aS'% %. .   % %   %   .  %.  %.%  % %'
p115
aS'% %%% %%%% %%    %% % %%%  .%  % %'
p116
aS'% %      % %   %    %.%.% % % %% %'
p117
aS'% %    % % % . %  % % %.% %   .% %'
p118
aS'%1% %%%%.% %%% %% %.% . %.%.%.%% %'
p119
aS'%3%   .%.%        %.%.%.%.%.%    %'
p120
aS'%%%%%%%%%%%%%%%%%%%%%%%%%%%%%%%%%%'
p121
asbsS'blueTeamName'
p122
S'drakridge'
p123
sS'actions'
p124
(lp125
(I1
S'South'
p126
tp127
a(I2
S'North'
p128
tp129
a(I3
g126
tp130
a(I0
g128
tp131
a(I1
g126
tp132
a(I2
g128
tp133
a(I3
g126
tp134
a(I0
g128
tp135
a(I1
g126
tp136
a(I2
g128
tp137
a(I3
g126
tp138
a(I0
g128
tp139
a(I1
g126
tp140
a(I2
g128
tp141
a(I3
g126
tp142
a(I0
g128
tp143
a(I1
g126
tp144
a(I2
g128
tp145
a(I3
g126
tp146
a(I0
g128
tp147
a(I1
g126
tp148
a(I2
g128
tp149
a(I3
g126
tp150
a(I0
g128
tp151
a(I1
g126
tp152
a(I2
g128
tp153
a(I3
g126
tp154
a(I0
g128
tp155
a(I1
g126
tp156
a(I2
g128
tp157
a(I3
g126
tp158
a(I0
g128
tp159
a(I1
g126
tp160
a(I2
g128
tp161
a(I3
g126
tp162
a(I0
g128
tp163
a(I1
g126
tp164
a(I2
g128
tp165
a(I3
g126
tp166
a(I0
g128
tp167
a(I1
g126
tp168
a(I2
g128
tp169
a(I3
g126
tp170
a(I0
g128
tp171
a(I1
g126
tp172
a(I2
g128
tp173
a(I3
g126
tp174
a(I0
g128
tp175
a(I1
g126
tp176
a(I2
g128
tp177
a(I3
g126
tp178
a(I0
g128
tp179
a(I1
g126
tp180
a(I2
g128
tp181
a(I3
g126
tp182
a(I0
g128
tp183
a(I1
S'West'
p184
tp185
a(I2
g128
tp186
a(I3
g126
tp187
a(I0
S'East'
p188
tp189
a(I1
g184
tp190
a(I2
g188
tp191
a(I3
g184
tp192
a(I0
g188
tp193
a(I1
g184
tp194
a(I2
g188
tp195
a(I3
g184
tp196
a(I0
g188
tp197
a(I1
g128
tp198
a(I2
g188
tp199
a(I3
g184
tp200
a(I0
g126
tp201
a(I1
g128
tp202
a(I2
g126
tp203
a(I3
g128
tp204
a(I0
g126
tp205
a(I1
g184
tp206
a(I2
g126
tp207
a(I3
g128
tp208
a(I0
g188
tp209
a(I1
g184
tp210
a(I2
g188
tp211
a(I3
g184
tp212
a(I0
g188
tp213
a(I1
g128
tp214
a(I2
g188
tp215
a(I3
g184
tp216
a(I0
g126
tp217
a(I1
g128
tp218
a(I2
g126
tp219
a(I3
g128
tp220
a(I0
g126
tp221
a(I1
g184
tp222
a(I2
g126
tp223
a(I3
g128
tp224
a(I0
g188
tp225
a(I1
g184
tp226
a(I2
g188
tp227
a(I3
g184
tp228
a(I0
g188
tp229
a(I1
g128
tp230
a(I2
g188
tp231
a(I3
g184
tp232
a(I0
g126
tp233
a(I1
g184
tp234
a(I2
g126
tp235
a(I3
g128
tp236
a(I0
g188
tp237
a(I1
g184
tp238
a(I2
g188
tp239
a(I3
g184
tp240
a(I0
g188
tp241
a(I1
g128
tp242
a(I2
g188
tp243
a(I3
g184
tp244
a(I0
g126
tp245
a(I1
g184
tp246
a(I2
g126
tp247
a(I3
g128
tp248
a(I0
g188
tp249
a(I1
g184
tp250
a(I2
g188
tp251
a(I3
g184
tp252
a(I0
g188
tp253
a(I1
g126
tp254
a(I2
g188
tp255
a(I3
g184
tp256
a(I0
g128
tp257
a(I1
g184
tp258
a(I2
g126
tp259
a(I3
g128
tp260
a(I0
g188
tp261
a(I1
g184
tp262
a(I2
g126
tp263
a(I3
g128
tp264
a(I0
g188
tp265
a(I1
g184
tp266
a(I2
g126
tp267
a(I3
g128
tp268
a(I0
g188
tp269
a(I1
g184
tp270
a(I2
g188
tp271
a(I3
g128
tp272
a(I0
g188
tp273
a(I1
g184
tp274
a(I2
g126
tp275
a(I3
g184
tp276
a(I0
g188
tp277
a(I1
g126
tp278
a(I2
g188
tp279
a(I3
g128
tp280
a(I0
g128
tp281
a(I1
g184
tp282
a(I2
g126
tp283
a(I3
g184
tp284
a(I0
S'Stop'
p285
tp286
a(I1
g188
tp287
a(I2
g188
tp288
a(I3
g184
tp289
a(I0
g128
tp290
a(I1
g128
tp291
a(I2
g188
tp292
a(I3
g184
tp293
a(I0
g184
tp294
a(I1
g128
tp295
a(I2
g128
tp296
a(I3
g126
tp297
a(I0
g188
tp298
a(I1
g188
tp299
a(I2
g126
tp300
a(I3
g184
tp301
a(I0
g126
tp302
a(I1
g126
tp303
a(I2
g126
tp304
a(I3
g184
tp305
a(I0
g188
tp306
a(I1
g184
tp307
a(I2
g188
tp308
a(I3
g184
tp309
a(I0
g188
tp310
a(I1
g126
tp311
a(I2
g188
tp312
a(I3
g126
tp313
a(I0
g128
tp314
a(I1
g184
tp315
a(I2
g188
tp316
a(I3
g126
tp317
a(I0
g128
tp318
a(I1
g184
tp319
a(I2
g126
tp320
a(I3
g128
tp321
a(I0
g188
tp322
a(I1
g126
tp323
a(I2
g126
tp324
a(I3
g128
tp325
a(I0
g126
tp326
a(I1
g126
tp327
a(I2
g126
tp328
a(I3
g184
tp329
a(I0
g126
tp330
a(I1
g184
tp331
a(I2
g128
tp332
a(I3
g184
tp333
a(I0
g126
tp334
a(I1
g128
tp335
a(I2
g128
tp336
a(I3
g126
tp337
a(I0
g126
tp338
a(I1
g128
tp339
a(I2
g128
tp340
a(I3
g128
tp341
a(I0
g188
tp342
a(I1
g128
tp343
a(I2
g128
tp344
a(I3
g128
tp345
a(I0
g126
tp346
a(I1
g184
tp347
a(I2
g128
tp348
a(I3
g128
tp349
a(I0
g126
tp350
a(I1
g128
tp351
a(I2
g128
tp352
a(I3
g128
tp353
a(I0
g126
tp354
a(I1
g128
tp355
a(I2
g128
tp356
a(I3
g128
tp357
a(I0
g188
tp358
a(I1
g128
tp359
a(I2
g126
tp360
a(I3
g184
tp361
a(I0
g188
tp362
a(I1
g128
tp363
a(I2
g126
tp364
a(I3
g184
tp365
a(I0
g126
tp366
a(I1
g184
tp367
a(I2
g188
tp368
a(I3
g126
tp369
a(I0
g128
tp370
a(I1
g184
tp371
a(I2
g188
tp372
a(I3
g126
tp373
a(I0
g128
tp374
a(I1
g128
tp375
a(I2
g126
tp376
a(I3
g128
tp377
a(I0
g128
tp378
a(I1
g126
tp379
a(I2
g126
tp380
a(I3
g128
tp381
a(I0
g188
tp382
a(I1
g126
tp383
a(I2
g126
tp384
a(I3
g128
tp385
a(I0
g188
tp386
a(I1
g126
tp387
a(I2
g126
tp388
a(I3
g126
tp389
a(I0
g128
tp390
a(I1
g184
tp391
a(I2
g126
tp392
a(I3
g188
tp393
a(I0
g128
tp394
a(I1
g184
tp395
a(I2
g128
tp396
a(I3
g188
tp397
a(I0
g188
tp398
a(I1
g126
tp399
a(I2
g188
tp400
a(I3
g128
tp401
a(I0
g188
tp402
a(I1
g126
tp403
a(I2
g188
tp404
a(I3
g126
tp405
a(I0
g188
tp406
a(I1
g184
tp407
a(I2
g126
tp408
a(I3
g126
tp409
a(I0
g188
tp410
a(I1
g184
tp411
a(I2
g128
tp412
a(I3
g126
tp413
a(I0
g188
tp414
a(I1
g184
tp415
a(I2
g128
tp416
a(I3
g126
tp417
a(I0
g184
tp418
a(I1
g184
tp419
a(I2
g128
tp420
a(I3
g126
tp421
a(I0
g126
tp422
a(I1
g184
tp423
a(I2
g126
tp424
a(I3
g188
tp425
a(I0
g126
tp426
a(I1
g188
tp427
a(I2
g126
tp428
a(I3
g188
tp429
a(I0
g126
tp430
a(I1
g128
tp431
a(I2
g184
tp432
a(I3
g128
tp433
a(I0
g126
tp434
a(I1
g128
tp435
a(I2
g184
tp436
a(I3
g128
tp437
a(I0
g126
tp438
a(I1
g128
tp439
a(I2
g128
tp440
a(I3
g128
tp441
a(I0
g126
tp442
a(I1
g128
tp443
a(I2
g128
tp444
a(I3
g128
tp445
a(I0
g126
tp446
a(I1
g128
tp447
a(I2
g128
tp448
a(I3
g128
tp449
a(I0
g126
tp450
a(I1
g128
tp451
a(I2
g128
tp452
a(I3
g126
tp453
a(I0
g126
tp454
a(I1
g128
tp455
a(I2
g128
tp456
a(I3
g126
tp457
a(I0
g128
tp458
a(I1
g128
tp459
a(I2
g188
tp460
a(I3
g126
tp461
a(I0
g188
tp462
a(I1
g184
tp463
a(I2
g188
tp464
a(I3
g126
tp465
a(I0
g184
tp466
a(I1
g188
tp467
a(I2
g128
tp468
a(I3
g126
tp469
a(I0
g184
tp470
a(I1
g128
tp471
a(I2
g188
tp472
a(I3
g184
tp473
a(I0
g184
tp474
a(I1
g126
tp475
a(I2
g188
tp476
a(I3
g184
tp477
a(I0
g126
tp478
a(I1
g126
tp479
a(I2
g128
tp480
a(I3
g126
tp481
a(I0
g126
tp482
a(I1
g126
tp483
a(I2
g128
tp484
a(I3
g184
tp485
a(I0
g128
tp486
a(I1
g126
tp487
a(I2
g128
tp488
a(I3
g184
tp489
a(I0
g128
tp490
a(I1
g126
tp491
a(I2
g188
tp492
a(I3
g128
tp493
a(I0
g128
tp494
a(I1
g126
tp495
a(I2
g188
tp496
a(I3
g184
tp497
a(I0
g128
tp498
a(I1
g126
tp499
a(I2
g188
tp500
a(I3
g184
tp501
a(I0
g128
tp502
a(I1
g126
tp503
a(I2
g128
tp504
a(I3
g128
tp505
a(I0
g126
tp506
a(I1
g126
tp507
a(I2
g128
tp508
a(I3
g184
tp509
a(I0
g184
tp510
a(I1
g188
tp511
a(I2
g184
tp512
a(I3
g184
tp513
a(I0
g184
tp514
a(I1
g126
tp515
a(I2
g184
tp516
a(I3
g126
tp517
a(I0
g126
tp518
a(I1
g126
tp519
a(I2
g184
tp520
a(I3
g128
tp521
a(I0
g126
tp522
a(I1
g188
tp523
a(I2
g128
tp524
a(I3
g128
tp525
a(I0
g126
tp526
a(I1
g188
tp527
a(I2
g128
tp528
a(I3
g128
tp529
a(I0
g126
tp530
asS'length'
p531
I1200
sS'agents'
p532
(lp533
(igame
Agent
p534
(dp535
S'index'
p536
I0
sba(igame
Agent
p537
(dp538
g536
I0
sba(igame
Agent
p539
(dp540
g536
I0
sba(igame
Agent
p541
(dp542
g536
I0
sbasS'redTeamName'
p543
S'E15'
p544
s.